target datalayout = "e-m:e-p270:32:32-p271:32:32-p272:64:64-i64:64-i128:128-f80:128-n8:16:32:64-S128"
target triple = "x86_64-pc-linux-gnu"

%class.Klass = type <{ %class.Metadata, i32, i32, i32, i32, ptr, ptr, ptr, [8 x ptr], %class.OopHandle, ptr, ptr, ptr, ptr, ptr, i32, %class.AccessFlags, i64, i64, i8, i8, i16, i16, [2 x i8], i32, [4 x i8] }>
%class.Metadata = type { ptr }
%class.OopHandle = type { ptr }
%class.AccessFlags = type { i32 }
%class.Dictionary = type { i32, ptr, ptr }
%class.Handle = type { ptr }

; Function Attrs: mustprogress nounwind uwtable
define linkonce_odr hidden noundef ptr @_ZNK10Dictionary11loader_dataEv(ptr noundef nonnull align 8 dereferenceable(24) %0) #1 comdat align 2 {
  %2 = alloca ptr, align 8
  store ptr %0, ptr %2, align 8
  %3 = load ptr, ptr %2, align 8
  %4 = getelementptr inbounds %class.Dictionary, ptr %3, i32 0, i32 2
  %5 = load ptr, ptr %4, align 8
  ret ptr %5
}

; Function Attrs: mustprogress nounwind uwtable
define linkonce_odr hidden noundef ptr @_ZNK5Klass4nameEv(ptr noundef nonnull align 8 dereferenceable(196) %0) #1 comdat align 2 {
  %2 = alloca ptr, align 8
  store ptr %0, ptr %2, align 8
  %3 = load ptr, ptr %2, align 8
  %4 = getelementptr inbounds %class.Klass, ptr %3, i32 0, i32 5
  %5 = load ptr, ptr %4, align 8
  ret ptr %5
}

; Function Attrs: mustprogress nounwind uwtable
define hidden void @_ZN10Dictionary27add_to_package_access_cacheEP10JavaThreadP13InstanceKlass6Handle(ptr noundef nonnull align 8 dereferenceable(24) %0, ptr noundef %1, ptr noundef %2, ptr %3) #1 align 2 {
  %5 = alloca %class.Handle, align 8
  %6 = alloca ptr, align 8
  %7 = alloca ptr, align 8
  %8 = alloca ptr, align 8
  %9 = alloca ptr, align 8
  %10 = alloca ptr, align 8
  %11 = alloca %class.Handle, align 8
  %12 = getelementptr inbounds %class.Handle, ptr %5, i32 0, i32 0
  store ptr %3, ptr %12, align 8
  store ptr %0, ptr %6, align 8
  store ptr %1, ptr %7, align 8
  store ptr %2, ptr %8, align 8
  %13 = load ptr, ptr %6, align 8
  %14 = load ptr, ptr %8, align 8
  %15 = call noundef ptr @_ZNK5Klass4nameEv(ptr noundef nonnull align 8 dereferenceable(196) %14)
  store ptr %15, ptr %9, align 8
  %16 = load ptr, ptr %7, align 8
  %17 = load ptr, ptr %9, align 8
  %18 = call noundef ptr @_ZN10Dictionary9get_entryEP6ThreadP6Symbol(ptr noundef nonnull align 8 dereferenceable(24) %13, ptr noundef %16, ptr noundef %17)
  store ptr %18, ptr %10, align 8
  %19 = load ptr, ptr %10, align 8
  %20 = call noundef ptr @_ZNK10Dictionary11loader_dataEv(ptr noundef nonnull align 8 dereferenceable(24) %13)
  call void @llvm.memcpy.p0.p0.i64(ptr align 8 %11, ptr align 8 %5, i64 8, i1 false)
  %21 = getelementptr inbounds %class.Handle, ptr %11, i32 0, i32 0
  %22 = load ptr, ptr %21, align 8
  call void @_ZN15DictionaryEntry27add_to_package_access_cacheEP15ClassLoaderData6Handle(ptr noundef nonnull align 8 dereferenceable(16) %19, ptr noundef %20, ptr %22)
  ret void
}