; Function Attrs: mustprogress nounwind uwtable
define hidden void @_ZN10Dictionary27add_to_package_access_cacheEP10JavaThreadP13InstanceKlass6Handle(ptr nocapture noundef nonnull readonly align 8 dereferenceable(24) %0, ptr noundef %1, ptr nocapture noundef readonly %2, ptr %3) local_unnamed_addr #0 align 2 {
  %5 = getelementptr inbounds i8, ptr %2, i64 24
  %6 = load ptr, ptr %5, align 8
  %7 = tail call noundef ptr @_ZN10Dictionary9get_entryEP6ThreadP6Symbol(ptr noundef nonnull align 8 dereferenceable(24) %0, ptr noundef %1, ptr noundef %6)
  %8 = getelementptr inbounds i8, ptr %0, i64 16
  %9 = load ptr, ptr %8, align 8
  tail call void @_ZN15DictionaryEntry27add_to_package_access_cacheEP15ClassLoaderData6Handle(ptr noundef nonnull align 8 dereferenceable(16) %7, ptr noundef %9, ptr %3)
  ret void
}